target datalayout = "e-m:e-p270:32:32-p271:32:32-p272:64:64-i64:64-i128:128-f80:128-n8:16:32:64-S128"
target triple = "x86_64-unknown-linux-gnu"

%struct.acpi_table_list = type { ptr, i32, i32, i8 }
%struct.acpi_table_desc = type { i64, ptr, i32, %union.acpi_name_union, i16, i8, i16 }
%union.acpi_name_union = type { i32 }

@acpi_gbl_root_table_list = external dso_local local_unnamed_addr global %struct.acpi_table_list, align 8

; Function Attrs: fn_ret_thunk_extern nounwind null_pointer_is_valid
define dso_local i32 @acpi_ns_load_table(i32 noundef %0, ptr noundef %1) local_unnamed_addr #0 align 16 {
  %3 = tail call zeroext i8 @acpi_tb_is_table_loaded(i32 noundef %0) #2
  %4 = icmp eq i8 %3, 0
  br i1 %4, label %5, label %18

5:                                                ; preds = %2
  %6 = tail call i32 @acpi_tb_allocate_owner_id(i32 noundef %0) #2
  %7 = icmp eq i32 %6, 0
  br i1 %7, label %8, label %18

8:                                                ; preds = %5
  %9 = tail call i32 @acpi_ns_parse_table(i32 noundef %0, ptr noundef %1) #2
  %10 = icmp eq i32 %9, 0
  br i1 %10, label %11, label %12

11:                                               ; preds = %8
  tail call void @acpi_tb_set_table_loaded_flag(i32 noundef %0, i8 noundef zeroext 1) #2
  br label %18

12:                                               ; preds = %8
  %13 = load ptr, ptr @acpi_gbl_root_table_list, align 8
  %14 = zext i32 %0 to i64
  %15 = getelementptr %struct.acpi_table_desc, ptr %13, i64 %14, i32 4
  %16 = load i16, ptr %15, align 8
  tail call void @acpi_ns_delete_namespace_by_owner(i16 noundef zeroext %16) #2
  %17 = tail call i32 @acpi_tb_release_owner_id(i32 noundef %0) #2
  br label %23

18:                                               ; preds = %11, %5, %2
  %19 = phi i32 [ %6, %5 ], [ 0, %11 ], [ 7, %2 ]
  %20 = icmp eq i32 %19, 0
  br i1 %20, label %21, label %23

21:                                               ; preds = %18
  tail call void @acpi_ex_enter_interpreter() #2
  %22 = tail call i32 @acpi_ds_initialize_objects(i32 noundef %0, ptr noundef %1) #2
  tail call void @acpi_ex_exit_interpreter() #2
  br label %23

23:                                               ; preds = %21, %18, %12
  %24 = phi i32 [ %22, %21 ], [ %9, %12 ], [ %19, %18 ]
  ret i32 %24
}

; Function Attrs: null_pointer_is_valid
declare dso_local zeroext i8 @acpi_tb_is_table_loaded(i32 noundef) local_unnamed_addr #1

; Function Attrs: null_pointer_is_valid
declare dso_local i32 @acpi_tb_allocate_owner_id(i32 noundef) local_unnamed_addr #1

; Function Attrs: null_pointer_is_valid
declare dso_local i32 @acpi_ns_parse_table(i32 noundef, ptr noundef) local_unnamed_addr #1

; Function Attrs: null_pointer_is_valid
declare dso_local void @acpi_tb_set_table_loaded_flag(i32 noundef, i8 noundef zeroext) local_unnamed_addr #1

; Function Attrs: null_pointer_is_valid
declare dso_local void @acpi_ns_delete_namespace_by_owner(i16 noundef zeroext) local_unnamed_addr #1

; Function Attrs: null_pointer_is_valid
declare dso_local i32 @acpi_tb_release_owner_id(i32 noundef) local_unnamed_addr #1

; Function Attrs: null_pointer_is_valid
declare dso_local void @acpi_ex_enter_interpreter() local_unnamed_addr #1

; Function Attrs: null_pointer_is_valid
declare dso_local i32 @acpi_ds_initialize_objects(i32 noundef, ptr noundef) local_unnamed_addr #1

; Function Attrs: null_pointer_is_valid
declare dso_local void @acpi_ex_exit_interpreter() local_unnamed_addr #1


!llvm.module.flags = !{!0, !1, !2, !3, !4}

!0 = !{i32 1, !"wchar_size", i32 2}
!1 = !{i32 8, !"cf-protection-branch", i32 1}
!2 = !{i32 4, !"function_return_thunk_extern", i32 1}
!3 = !{i32 4, !"indirect_branch_cs_prefix", i32 1}
!4 = !{i32 4, !"SkipRaxSetup", i32 1}
