; ModuleID = 'bench/linux/original/nsload.ll'
source_filename = "bench/linux/original/nsload.ll"
target datalayout = "e-m:e-p270:32:32-p271:32:32-p272:64:64-i64:64-i128:128-f80:128-n8:16:32:64-S128"
target triple = "x86_64-unknown-linux-gnu"

%struct.acpi_table_list = type { ptr, i32, i32, i8 }
%struct.acpi_table_desc = type { i64, ptr, i32, %union.acpi_name_union, i16, i8, i16 }
%union.acpi_name_union = type { i32 }

@acpi_gbl_root_table_list = external dso_local local_unnamed_addr global %struct.acpi_table_list, align 8

; Function Attrs: fn_ret_thunk_extern nounwind null_pointer_is_valid
define dso_local i32 @acpi_ns_load_table(i32 noundef %0, ptr noundef %1) local_unnamed_addr #0 align 16 {
  %3 = tail call zeroext i8 @acpi_tb_is_table_loaded(i32 noundef %0) #2
  %4 = icmp eq i8 %3, 0
  br i1 %4, label %5, label %.thread

5:                                                ; preds = %2
  %6 = tail call i32 @acpi_tb_allocate_owner_id(i32 noundef %0) #2
  %7 = icmp eq i32 %6, 0
  br i1 %7, label %8, label %.thread

8:                                                ; preds = %5
  %9 = tail call i32 @acpi_ns_parse_table(i32 noundef %0, ptr noundef %1) #2
  %10 = icmp eq i32 %9, 0
  br i1 %10, label %17, label %11

11:                                               ; preds = %8
  %12 = load ptr, ptr @acpi_gbl_root_table_list, align 8
  %13 = zext i32 %0 to i64
  %14 = getelementptr %struct.acpi_table_desc, ptr %12, i64 %13, i32 4
  %15 = load i16, ptr %14, align 8
  tail call void @acpi_ns_delete_namespace_by_owner(i16 noundef zeroext %15) #2
  %16 = tail call i32 @acpi_tb_release_owner_id(i32 noundef %0) #2
  br label %.thread

17:                                               ; preds = %8
  tail call void @acpi_tb_set_table_loaded_flag(i32 noundef %0, i8 noundef zeroext 1) #2
  tail call void @acpi_ex_enter_interpreter() #2
  %18 = tail call i32 @acpi_ds_initialize_objects(i32 noundef %0, ptr noundef %1) #2
  tail call void @acpi_ex_exit_interpreter() #2
  br label %.thread

.thread:                                          ; preds = %2, %5, %17, %11
  %19 = phi i32 [ %18, %17 ], [ %9, %11 ], [ 7, %2 ], [ %6, %5 ]
  ret i32 %19
}

; Function Attrs: null_pointer_is_valid
declare dso_local zeroext i8 @acpi_tb_is_table_loaded(i32 noundef) local_unnamed_addr #1

; Function Attrs: null_pointer_is_valid
declare dso_local i32 @acpi_tb_allocate_owner_id(i32 noundef) local_unnamed_addr #1

; Function Attrs: null_pointer_is_valid
declare dso_local i32 @acpi_ns_parse_table(i32 noundef, ptr noundef) local_unnamed_addr #1

; Function Attrs: null_pointer_is_valid
declare dso_local void @acpi_tb_set_table_loaded_flag(i32 noundef, i8 noundef zeroext) local_unnamed_addr #1

; Function Attrs: null_pointer_is_valid
declare dso_local void @acpi_ns_delete_namespace_by_owner(i16 noundef zeroext) local_unnamed_addr #1

; Function Attrs: null_pointer_is_valid
declare dso_local i32 @acpi_tb_release_owner_id(i32 noundef) local_unnamed_addr #1

; Function Attrs: null_pointer_is_valid
declare dso_local void @acpi_ex_enter_interpreter() local_unnamed_addr #1

; Function Attrs: null_pointer_is_valid
declare dso_local i32 @acpi_ds_initialize_objects(i32 noundef, ptr noundef) local_unnamed_addr #1

; Function Attrs: null_pointer_is_valid
declare dso_local void @acpi_ex_exit_interpreter() local_unnamed_addr #1


!llvm.module.flags = !{!0, !1, !2, !3, !4}

!0 = !{i32 1, !"wchar_size", i32 2}
!1 = !{i32 8, !"cf-protection-branch", i32 1}
!2 = !{i32 4, !"function_return_thunk_extern", i32 1}
!3 = !{i32 4, !"indirect_branch_cs_prefix", i32 1}
!4 = !{i32 4, !"SkipRaxSetup", i32 1}
